; Function Attrs: nofree norecurse nosync nounwind memory(readwrite, inaccessiblemem: none) uwtable
define void @Kit_SopCommonCubeCover(ptr noundef writeonly captures(none) initializes((4, 16)) %0, ptr noundef readonly captures(none) %1, ptr noundef captures(none) %2) local_unnamed_addr #0 {
  %4 = getelementptr inbounds nuw i8, ptr %0, i64 4
  store i32 0, ptr %4, align 4, !tbaa !3
  %5 = getelementptr inbounds nuw i8, ptr %2, i64 4
  %6 = load i32, ptr %5, align 4, !tbaa !10
  %7 = add nsw i32 %6, 1
  store i32 %7, ptr %5, align 4, !tbaa !10
  %8 = load i32, ptr %2, align 8, !tbaa !13
  %.not = icmp slt i32 %6, %8
  br i1 %.not, label %9, label %Vec_IntFetch.exit

9:                                                ; preds = %3
  %10 = getelementptr inbounds nuw i8, ptr %2, i64 8
  %11 = load ptr, ptr %10, align 8, !tbaa !14
  %12 = sext i32 %7 to i64
  %13 = getelementptr inbounds i32, ptr %11, i64 %12
  %14 = getelementptr inbounds i8, ptr %13, i64 -4
  br label %Vec_IntFetch.exit

Vec_IntFetch.exit:                                ; preds = %3, %9
  %.0.i = phi ptr [ %14, %9 ], [ null, %3 ]
  %15 = getelementptr inbounds nuw i8, ptr %0, i64 8
  store ptr %.0.i, ptr %15, align 8, !tbaa !12
  %16 = getelementptr i8, ptr %1, i64 4
  %.val.i = load i32, ptr %16, align 4, !tbaa !3
  %17 = icmp sgt i32 %.val.i, 0
  br i1 %17, label %.lr.ph.i, label %Kit_SopCommonCube.exit

.lr.ph.i:                                         ; preds = %Vec_IntFetch.exit
  %18 = getelementptr i8, ptr %1, i64 8
  %.val9.i = load ptr, ptr %18, align 8, !tbaa !12
  %wide.trip.count.i = zext nneg i32 %.val.i to i64
  br label %19

19:                                               ; preds = %22, %.lr.ph.i
  %indvars.iv.i = phi i64 [ 0, %.lr.ph.i ], [ %indvars.iv.next.i, %22 ]
  %.0710.i = phi i32 [ -1, %.lr.ph.i ], [ %23, %22 ]
  %20 = getelementptr inbounds nuw i32, ptr %.val9.i, i64 %indvars.iv.i
  %21 = load i32, ptr %20, align 4, !tbaa !15
  %.not.i = icmp eq i32 %21, 0
  br i1 %.not.i, label %Kit_SopCommonCube.exit, label %22

22:                                               ; preds = %19
  %23 = and i32 %21, %.0710.i
  %indvars.iv.next.i = add nuw nsw i64 %indvars.iv.i, 1
  %exitcond.not.i = icmp eq i64 %indvars.iv.next.i, %wide.trip.count.i
  br i1 %exitcond.not.i, label %Kit_SopCommonCube.exit, label %19, !llvm.loop !29

Kit_SopCommonCube.exit:                           ; preds = %19, %22, %Vec_IntFetch.exit
  %.07.lcssa.i = phi i32 [ -1, %Vec_IntFetch.exit ], [ %.0710.i, %19 ], [ %23, %22 ]
  store i32 1, ptr %4, align 4, !tbaa !3
  store i32 %.07.lcssa.i, ptr %.0.i, align 4, !tbaa !15
  ret void
}